; Function Attrs: nounwind sspstrong uwtable
define dso_local noundef zeroext i1 @tcg_region_alloc(ptr noundef captures(none) %0) local_unnamed_addr #1 {
  %2 = getelementptr inbounds nuw i8, ptr %0, i64 144
  %3 = load i64, ptr %2, align 8
  %4 = load atomic i64, ptr @qemu_mutex_lock_func monotonic, align 8
  %5 = inttoptr i64 %4 to ptr
  tail call void %5(ptr noundef nonnull @region, ptr noundef nonnull @.str, i32 noundef 380) #12
  %6 = load i64, ptr getelementptr inbounds nuw (i8, ptr @region, i64 96), align 8
  %7 = load i64, ptr getelementptr inbounds nuw (i8, ptr @region, i64 64), align 8
  %8 = icmp eq i64 %6, %7
  br i1 %8, label %tcg_region_alloc__locked.exit.thread, label %9

9:                                                ; preds = %1
  %10 = load ptr, ptr getelementptr inbounds nuw (i8, ptr @region, i64 48), align 8
  %11 = load i64, ptr getelementptr inbounds nuw (i8, ptr @region, i64 80), align 8
  %12 = mul i64 %11, %6
  %13 = getelementptr inbounds nuw i8, ptr %10, i64 %12
  %14 = load i64, ptr getelementptr inbounds nuw (i8, ptr @region, i64 72), align 8
  %15 = getelementptr inbounds nuw i8, ptr %13, i64 %14
  %16 = icmp eq i64 %6, 0
  %17 = load ptr, ptr getelementptr inbounds nuw (i8, ptr @region, i64 56), align 8
  %spec.select.i.i.i = select i1 %16, ptr %17, ptr %13
  %18 = add i64 %7, -1
  %19 = icmp eq i64 %6, %18
  %20 = load i64, ptr getelementptr inbounds nuw (i8, ptr @region, i64 88), align 8
  %21 = getelementptr inbounds nuw i8, ptr %10, i64 %20
  %.0.i.i.i = select i1 %19, ptr %21, ptr %15
  %22 = getelementptr inbounds nuw i8, ptr %0, i64 136
  store ptr %spec.select.i.i.i, ptr %22, align 8
  %23 = getelementptr inbounds nuw i8, ptr %0, i64 152
  store ptr %spec.select.i.i.i, ptr %23, align 8
  %24 = ptrtoint ptr %.0.i.i.i to i64
  %25 = ptrtoint ptr %spec.select.i.i.i to i64
  %26 = sub i64 %24, %25
  store i64 %26, ptr %2, align 8
  %27 = getelementptr inbounds i8, ptr %.0.i.i.i, i64 -1024
  %28 = getelementptr inbounds nuw i8, ptr %0, i64 168
  store ptr %27, ptr %28, align 8
  %29 = add i64 %6, 1
  store i64 %29, ptr getelementptr inbounds nuw (i8, ptr @region, i64 96), align 8
  %30 = add i64 %3, -1024
  %31 = load i64, ptr getelementptr inbounds nuw (i8, ptr @region, i64 104), align 8
  %32 = add i64 %30, %31
  store i64 %32, ptr getelementptr inbounds nuw (i8, ptr @region, i64 104), align 8
  br label %tcg_region_alloc__locked.exit.thread

tcg_region_alloc__locked.exit.thread:             ; preds = %1, %9
  tail call void @qemu_mutex_unlock_impl(ptr noundef nonnull @region, ptr noundef nonnull @.str, i32 noundef 385) #12
  ret i1 %8
}